target datalayout = "e-m:e-p270:32:32-p271:32:32-p272:64:64-i64:64-i128:128-f80:128-n8:16:32:64-S128"
target triple = "x86_64-unknown-linux-gnu"

%struct.bxt_ddi_phy_info = type { i8, i32, i32, i32, [2 x %struct.anon] }
%struct.anon = type { i32 }

@.str = private unnamed_addr constant [33 x i8] c"%s %s: PHY not found for PORT %c\00", align 1
@.str.1 = private unnamed_addr constant [46 x i8] c"drivers/gpu/drm/i915/display/intel_dpio_phy.c\00", align 1

; Function Attrs: fn_ret_thunk_extern nounwind null_pointer_is_valid
define dso_local void @bxt_port_to_phy_channel(ptr nocapture noundef readonly %0, i32 noundef %1, ptr nocapture noundef writeonly %2, ptr nocapture noundef writeonly %3) local_unnamed_addr #0 align 16 {
  %5 = getelementptr inbounds i8, ptr %0, i64 7184
  %6 = load i32, ptr %5, align 4
  %7 = and i32 %6, 268435456
  %8 = icmp eq i32 %7, 0
  %9 = select i1 %8, i32 2, i32 3
  %10 = select i1 %8, ptr @bxt_ddi_phy_info, ptr @glk_ddi_phy_info
  br label %11

11:                                               ; preds = %25, %4
  %12 = phi i32 [ 0, %4 ], [ %26, %25 ]
  %13 = zext nneg i32 %12 to i64
  %14 = getelementptr %struct.bxt_ddi_phy_info, ptr %10, i64 %13
  %15 = getelementptr inbounds i8, ptr %14, i64 16
  %16 = load i32, ptr %15, align 8
  %17 = icmp eq i32 %16, %1
  br i1 %17, label %41, label %18

18:                                               ; preds = %11
  %19 = load i8, ptr %14, align 8, !range !5, !noundef !6
  %20 = icmp eq i8 %19, 0
  br i1 %20, label %25, label %21

21:                                               ; preds = %18
  %22 = getelementptr i8, ptr %14, i64 20
  %23 = load i32, ptr %22, align 4
  %24 = icmp eq i32 %23, %1
  br i1 %24, label %41, label %25

25:                                               ; preds = %21, %18
  %26 = add nuw nsw i32 %12, 1
  %27 = icmp eq i32 %26, %9
  br i1 %27, label %28, label %11, !llvm.loop !7

28:                                               ; preds = %25
  tail call void asm sideeffect "897: nop\0A\09.pushsection .discard.instr_begin\0A\09.long 897b - .\0A\09.popsection\0A\09", "i,~{dirflag},~{fpsr},~{flags}"(i32 897) #6, !srcloc !10
  %29 = getelementptr inbounds i8, ptr %0, i64 8
  %30 = load ptr, ptr %29, align 8
  %31 = tail call ptr @dev_driver_string(ptr noundef %30) #6
  %32 = load ptr, ptr %29, align 8
  %33 = getelementptr inbounds i8, ptr %32, i64 80
  %34 = load ptr, ptr %33, align 8
  %35 = icmp eq ptr %34, null
  br i1 %35, label %36, label %38

36:                                               ; preds = %28
  %37 = load ptr, ptr %32, align 8
  br label %38

38:                                               ; preds = %36, %28
  %39 = phi ptr [ %37, %36 ], [ %34, %28 ]
  %40 = add i32 %1, 65
  tail call void (ptr, ...) @__warn_printk(ptr noundef nonnull @.str, ptr noundef %31, ptr noundef %39, i32 noundef %40) #6
  tail call void asm sideeffect "898: nop\0A\09.pushsection .discard.instr_begin\0A\09.long 898b - .\0A\09.popsection\0A\09", "i,~{dirflag},~{fpsr},~{flags}"(i32 898) #6, !srcloc !11
  tail call void asm sideeffect "1:\09.byte 0x0f, 0x0b\0A.pushsection __bug_table,\22aw\22\0A2:\09.long 1b - .\09# bug_entry::bug_addr\0A\09.long ${0:c} - .\09# bug_entry::file\0A\09.word ${1:c}\09# bug_entry::line\0A\09.word ${2:c}\09# bug_entry::flags\0A\09.org 2b+${3:c}\0A.popsection\0A998:\0A\09.pushsection .discard.reachable\0A\09.long 998b\0A\09.popsection\0A\09", "i,i,i,i,~{dirflag},~{fpsr},~{flags}"(ptr nonnull @.str.1, i32 267, i32 2313, i64 12) #6, !srcloc !12
  tail call void asm sideeffect "899: nop\0A\09.pushsection .discard.instr_end\0A\09.long 899b - .\0A\09.popsection\0A\09", "i,~{dirflag},~{fpsr},~{flags}"(i32 899) #6, !srcloc !13
  tail call void asm sideeffect "900: nop\0A\09.pushsection .discard.instr_end\0A\09.long 900b - .\0A\09.popsection\0A\09", "i,~{dirflag},~{fpsr},~{flags}"(i32 900) #6, !srcloc !14
  br label %41

41:                                               ; preds = %38, %21, %11
  %42 = phi i32 [ 0, %38 ], [ %12, %11 ], [ %12, %21 ]
  %43 = phi i32 [ 0, %38 ], [ 1, %21 ], [ 0, %11 ]
  store i32 %42, ptr %2, align 4
  store i32 %43, ptr %3, align 4
  ret void
}

; Function Attrs: fn_ret_thunk_extern nounwind null_pointer_is_valid
define dso_local void @bxt_ddi_phy_set_lane_optim_mask(ptr nocapture noundef readonly %0, i8 noundef zeroext %1) local_unnamed_addr #0 align 16 {
  %3 = alloca i32, align 4
  %4 = alloca i32, align 4
  %5 = load ptr, ptr %0, align 8
  %6 = getelementptr inbounds i8, ptr %0, i64 132
  %7 = load i32, ptr %6, align 4
  call void @llvm.lifetime.start.p0(i64 4, ptr nonnull %3) #6
  store i32 0, ptr %3, align 4, !annotation !15
  call void @llvm.lifetime.start.p0(i64 4, ptr nonnull %4) #6
  store i32 0, ptr %4, align 4, !annotation !15
  call void @bxt_port_to_phy_channel(ptr noundef %5, i32 noundef %7, ptr noundef nonnull %3, ptr noundef nonnull %4)
  %8 = load i32, ptr %3, align 4
  %9 = icmp eq i32 %8, 0
  %10 = shl i32 %8, 12
  %11 = add i32 %10, 1445888
  %12 = select i1 %9, i32 442368, i32 %11
  %13 = load i32, ptr %4, align 4
  %14 = shl i32 %13, 10
  %15 = getelementptr inbounds i8, ptr %5, i64 7368
  %16 = getelementptr inbounds i8, ptr %5, i64 7512
  %17 = zext i8 %1 to i64
  %18 = getelementptr inbounds i8, ptr %5, i64 7544
  br label %19

19:                                               ; preds = %19, %2
  %20 = phi i64 [ 0, %2 ], [ %40, %19 ]
  %21 = trunc i64 %20 to i32
  %22 = shl i32 %21, 8
  %23 = and i32 %22, 512
  %24 = trunc i64 %20 to i32
  %25 = shl i32 %24, 7
  %26 = and i32 %25, 128
  %27 = or disjoint i32 %23, %26
  %28 = or disjoint i32 %27, 1336
  %29 = add i32 %28, %14
  %30 = add i32 %29, %12
  %31 = load ptr, ptr %16, align 8
  %32 = tail call i32 %31(ptr noundef %15, i32 %30, i1 noundef zeroext true) #6
  %33 = and i32 %32, -1073741825
  %34 = shl nuw nsw i64 1, %20
  %35 = and i64 %34, %17
  %36 = icmp eq i64 %35, 0
  %37 = select i1 %36, i32 0, i32 1073741824
  %38 = or disjoint i32 %33, %37
  %39 = load ptr, ptr %18, align 8
  tail call void %39(ptr noundef %15, i32 %30, i32 noundef %38, i1 noundef zeroext true) #6
  %40 = add nuw nsw i64 %20, 1
  %41 = icmp eq i64 %40, 4
  br i1 %41, label %42, label %19, !llvm.loop !27

42:                                               ; preds = %19
  call void @llvm.lifetime.end.p0(i64 4, ptr nonnull %4) #6
  call void @llvm.lifetime.end.p0(i64 4, ptr nonnull %3) #6
  ret void
}