; Function Attrs: fn_ret_thunk_extern nounwind null_pointer_is_valid
define dso_local void @bxt_ddi_phy_set_lane_optim_mask(ptr nocapture noundef readonly %0, i8 noundef zeroext %1) local_unnamed_addr #0 align 16 {
  %3 = load ptr, ptr %0, align 8
  %4 = getelementptr inbounds i8, ptr %0, i64 132
  %5 = load i32, ptr %4, align 4
  %6 = getelementptr inbounds i8, ptr %3, i64 7184
  %7 = load i32, ptr %6, align 4
  %8 = and i32 %7, 268435456
  %9 = icmp eq i32 %8, 0
  %10 = select i1 %9, i64 2, i64 3
  %11 = select i1 %9, ptr @bxt_ddi_phy_info, ptr @glk_ddi_phy_info
  br label %12

12:                                               ; preds = %24, %2
  %indvars.iv.i = phi i64 [ %indvars.iv.next.i, %24 ], [ 0, %2 ]
  %13 = getelementptr %struct.bxt_ddi_phy_info, ptr %11, i64 %indvars.iv.i
  %14 = getelementptr inbounds i8, ptr %13, i64 16
  %15 = load i32, ptr %14, align 8
  %16 = icmp eq i32 %15, %5
  br i1 %16, label %bxt_port_to_phy_channel.exit, label %17

17:                                               ; preds = %12
  %18 = load i8, ptr %13, align 8, !range !5, !noundef !6
  %19 = icmp eq i8 %18, 0
  br i1 %19, label %24, label %20

20:                                               ; preds = %17
  %21 = getelementptr i8, ptr %13, i64 20
  %22 = load i32, ptr %21, align 4
  %23 = icmp eq i32 %22, %5
  br i1 %23, label %bxt_port_to_phy_channel.exit, label %24

24:                                               ; preds = %20, %17
  %indvars.iv.next.i = add nuw nsw i64 %indvars.iv.i, 1
  %25 = icmp eq i64 %indvars.iv.next.i, %10
  br i1 %25, label %26, label %12, !llvm.loop !7

26:                                               ; preds = %24
  tail call void asm sideeffect "897: nop\0A\09.pushsection .discard.instr_begin\0A\09.long 897b - .\0A\09.popsection\0A\09", "i,~{dirflag},~{fpsr},~{flags}"(i32 897) #6, !srcloc !10
  %27 = getelementptr inbounds i8, ptr %3, i64 8
  %28 = load ptr, ptr %27, align 8
  %29 = tail call ptr @dev_driver_string(ptr noundef %28) #6
  %30 = load ptr, ptr %27, align 8
  %31 = getelementptr inbounds i8, ptr %30, i64 80
  %32 = load ptr, ptr %31, align 8
  %33 = icmp eq ptr %32, null
  br i1 %33, label %34, label %bxt_port_to_phy_channel.exit.thread

34:                                               ; preds = %26
  %35 = load ptr, ptr %30, align 8
  br label %bxt_port_to_phy_channel.exit.thread

bxt_port_to_phy_channel.exit.thread:              ; preds = %26, %34
  %36 = phi ptr [ %35, %34 ], [ %32, %26 ]
  %37 = add i32 %5, 65
  tail call void (ptr, ...) @__warn_printk(ptr noundef nonnull @.str, ptr noundef %29, ptr noundef %36, i32 noundef %37) #6
  tail call void asm sideeffect "898: nop\0A\09.pushsection .discard.instr_begin\0A\09.long 898b - .\0A\09.popsection\0A\09", "i,~{dirflag},~{fpsr},~{flags}"(i32 898) #6, !srcloc !11
  tail call void asm sideeffect "1:\09.byte 0x0f, 0x0b\0A.pushsection __bug_table,\22aw\22\0A2:\09.long 1b - .\09# bug_entry::bug_addr\0A\09.long ${0:c} - .\09# bug_entry::file\0A\09.word ${1:c}\09# bug_entry::line\0A\09.word ${2:c}\09# bug_entry::flags\0A\09.org 2b+${3:c}\0A.popsection\0A998:\0A\09.pushsection .discard.reachable\0A\09.long 998b\0A\09.popsection\0A\09", "i,i,i,i,~{dirflag},~{fpsr},~{flags}"(ptr nonnull @.str.1, i32 267, i32 2313, i64 12) #6, !srcloc !12
  tail call void asm sideeffect "899: nop\0A\09.pushsection .discard.instr_end\0A\09.long 899b - .\0A\09.popsection\0A\09", "i,~{dirflag},~{fpsr},~{flags}"(i32 899) #6, !srcloc !13
  tail call void asm sideeffect "900: nop\0A\09.pushsection .discard.instr_end\0A\09.long 900b - .\0A\09.popsection\0A\09", "i,~{dirflag},~{fpsr},~{flags}"(i32 900) #6, !srcloc !14
  br label %43

bxt_port_to_phy_channel.exit:                     ; preds = %12, %20
  %.ph.i = phi i32 [ 1336, %12 ], [ 2360, %20 ]
  %38 = trunc i64 %indvars.iv.i to i32
  %39 = icmp eq i32 %38, 0
  %40 = shl i32 %38, 12
  %41 = add i32 %40, 1445888
  %spec.select = select i1 %39, i32 442368, i32 %41
  %42 = or disjoint i32 %.ph.i, %spec.select
  br label %43

43:                                               ; preds = %bxt_port_to_phy_channel.exit, %bxt_port_to_phy_channel.exit.thread
  %44 = phi i32 [ 443704, %bxt_port_to_phy_channel.exit.thread ], [ %42, %bxt_port_to_phy_channel.exit ]
  %45 = getelementptr inbounds i8, ptr %3, i64 7368
  %46 = getelementptr inbounds i8, ptr %3, i64 7512
  %47 = zext i8 %1 to i64
  %48 = getelementptr inbounds i8, ptr %3, i64 7544
  br label %49

49:                                               ; preds = %49, %43
  %50 = phi i64 [ 0, %43 ], [ %67, %49 ]
  %51 = trunc i64 %50 to i32
  %52 = shl i32 %51, 8
  %53 = and i32 %52, 512
  %54 = shl i32 %51, 7
  %55 = and i32 %54, 128
  %56 = or disjoint i32 %53, %55
  %57 = add i32 %44, %56
  %58 = load ptr, ptr %46, align 8
  %59 = tail call i32 %58(ptr noundef %45, i32 %57, i1 noundef zeroext true) #6
  %60 = and i32 %59, -1073741825
  %61 = shl nuw nsw i64 1, %50
  %62 = and i64 %61, %47
  %63 = icmp eq i64 %62, 0
  %64 = select i1 %63, i32 0, i32 1073741824
  %65 = or disjoint i32 %64, %60
  %66 = load ptr, ptr %48, align 8
  tail call void %66(ptr noundef %45, i32 %57, i32 noundef %65, i1 noundef zeroext true) #6
  %67 = add nuw nsw i64 %50, 1
  %68 = icmp eq i64 %67, 4
  br i1 %68, label %69, label %49, !llvm.loop !27

69:                                               ; preds = %49
  ret void
}